
WCB.elf:     file format elf32-avr

Sections:
Idx Name          Size      VMA       LMA       File off  Algn
  0 .data         0000011e  00800100  00000872  00000906  2**0
                  CONTENTS, ALLOC, LOAD, DATA
  1 .text         00000872  00000000  00000000  00000094  2**1
                  CONTENTS, ALLOC, LOAD, READONLY, CODE
  2 .bss          0000000c  0080021e  0080021e  00000a24  2**0
                  ALLOC
  3 .comment      00000030  00000000  00000000  00000a24  2**0
                  CONTENTS, READONLY
  4 .note.gnu.avr.deviceinfo 00000040  00000000  00000000  00000a54  2**2
                  CONTENTS, READONLY
  5 .debug_aranges 000000f8  00000000  00000000  00000a94  2**0
                  CONTENTS, READONLY, DEBUGGING
  6 .debug_info   00001626  00000000  00000000  00000b8c  2**0
                  CONTENTS, READONLY, DEBUGGING
  7 .debug_abbrev 000003a6  00000000  00000000  000021b2  2**0
                  CONTENTS, READONLY, DEBUGGING
  8 .debug_line   00000a95  00000000  00000000  00002558  2**0
                  CONTENTS, READONLY, DEBUGGING
  9 .debug_frame  000002b8  00000000  00000000  00002ff0  2**2
                  CONTENTS, READONLY, DEBUGGING
 10 .debug_str    0000086e  00000000  00000000  000032a8  2**0
                  CONTENTS, READONLY, DEBUGGING
 11 .debug_loc    0000063d  00000000  00000000  00003b16  2**0
                  CONTENTS, READONLY, DEBUGGING
 12 .debug_ranges 00000100  00000000  00000000  00004153  2**0
                  CONTENTS, READONLY, DEBUGGING

Disassembly of section .text:

00000000 <__vectors>:
   0:	0c 94 5a 00 	jmp	0xb4	; 0xb4 <__ctors_end>
   4:	0c 94 0e 04 	jmp	0x81c	; 0x81c <__vector_1>
   8:	0c 94 77 00 	jmp	0xee	; 0xee <__bad_interrupt>
   c:	0c 94 77 00 	jmp	0xee	; 0xee <__bad_interrupt>
  10:	0c 94 77 00 	jmp	0xee	; 0xee <__bad_interrupt>
  14:	0c 94 77 00 	jmp	0xee	; 0xee <__bad_interrupt>
  18:	0c 94 77 00 	jmp	0xee	; 0xee <__bad_interrupt>
  1c:	0c 94 77 00 	jmp	0xee	; 0xee <__bad_interrupt>
  20:	0c 94 77 00 	jmp	0xee	; 0xee <__bad_interrupt>
  24:	0c 94 77 00 	jmp	0xee	; 0xee <__bad_interrupt>
  28:	0c 94 77 00 	jmp	0xee	; 0xee <__bad_interrupt>
  2c:	0c 94 77 00 	jmp	0xee	; 0xee <__bad_interrupt>
  30:	0c 94 77 00 	jmp	0xee	; 0xee <__bad_interrupt>
  34:	0c 94 77 00 	jmp	0xee	; 0xee <__bad_interrupt>
  38:	0c 94 77 00 	jmp	0xee	; 0xee <__bad_interrupt>
  3c:	0c 94 77 00 	jmp	0xee	; 0xee <__bad_interrupt>
  40:	0c 94 77 00 	jmp	0xee	; 0xee <__bad_interrupt>
  44:	0c 94 77 00 	jmp	0xee	; 0xee <__bad_interrupt>
  48:	0c 94 77 00 	jmp	0xee	; 0xee <__bad_interrupt>
  4c:	0c 94 77 00 	jmp	0xee	; 0xee <__bad_interrupt>
  50:	0c 94 77 00 	jmp	0xee	; 0xee <__bad_interrupt>
  54:	0c 94 77 00 	jmp	0xee	; 0xee <__bad_interrupt>
  58:	0c 94 77 00 	jmp	0xee	; 0xee <__bad_interrupt>
  5c:	0c 94 77 00 	jmp	0xee	; 0xee <__bad_interrupt>
  60:	0c 94 77 00 	jmp	0xee	; 0xee <__bad_interrupt>
  64:	0c 94 77 00 	jmp	0xee	; 0xee <__bad_interrupt>
  68:	0c 94 77 00 	jmp	0xee	; 0xee <__bad_interrupt>
  6c:	0c 94 77 00 	jmp	0xee	; 0xee <__bad_interrupt>
  70:	0c 94 77 00 	jmp	0xee	; 0xee <__bad_interrupt>
  74:	0c 94 77 00 	jmp	0xee	; 0xee <__bad_interrupt>
  78:	0c 94 77 00 	jmp	0xee	; 0xee <__bad_interrupt>
  7c:	0c 94 77 00 	jmp	0xee	; 0xee <__bad_interrupt>
  80:	0c 94 77 00 	jmp	0xee	; 0xee <__bad_interrupt>
  84:	0c 94 77 00 	jmp	0xee	; 0xee <__bad_interrupt>
  88:	0c 94 77 00 	jmp	0xee	; 0xee <__bad_interrupt>
  8c:	0c 94 77 00 	jmp	0xee	; 0xee <__bad_interrupt>
  90:	0c 94 77 00 	jmp	0xee	; 0xee <__bad_interrupt>
  94:	0c 94 77 00 	jmp	0xee	; 0xee <__bad_interrupt>
  98:	0c 94 77 00 	jmp	0xee	; 0xee <__bad_interrupt>
  9c:	0c 94 77 00 	jmp	0xee	; 0xee <__bad_interrupt>
  a0:	0c 94 77 00 	jmp	0xee	; 0xee <__bad_interrupt>
  a4:	0c 94 77 00 	jmp	0xee	; 0xee <__bad_interrupt>
  a8:	0c 94 77 00 	jmp	0xee	; 0xee <__bad_interrupt>
  ac:	0c 94 77 00 	jmp	0xee	; 0xee <__bad_interrupt>
  b0:	0c 94 77 00 	jmp	0xee	; 0xee <__bad_interrupt>

000000b4 <__ctors_end>:
  b4:	11 24       	eor	r1, r1
  b6:	1f be       	out	0x3f, r1	; 63
  b8:	cf ef       	ldi	r28, 0xFF	; 255
  ba:	d8 e0       	ldi	r29, 0x08	; 8
  bc:	de bf       	out	0x3e, r29	; 62
  be:	cd bf       	out	0x3d, r28	; 61

000000c0 <__do_copy_data>:
  c0:	12 e0       	ldi	r17, 0x02	; 2
  c2:	a0 e0       	ldi	r26, 0x00	; 0
  c4:	b1 e0       	ldi	r27, 0x01	; 1
  c6:	e2 e7       	ldi	r30, 0x72	; 114
  c8:	f8 e0       	ldi	r31, 0x08	; 8
  ca:	02 c0       	rjmp	.+4      	; 0xd0 <__do_copy_data+0x10>
  cc:	05 90       	lpm	r0, Z+
  ce:	0d 92       	st	X+, r0
  d0:	ae 31       	cpi	r26, 0x1E	; 30
  d2:	b1 07       	cpc	r27, r17
  d4:	d9 f7       	brne	.-10     	; 0xcc <__do_copy_data+0xc>

000000d6 <__do_clear_bss>:
  d6:	22 e0       	ldi	r18, 0x02	; 2
  d8:	ae e1       	ldi	r26, 0x1E	; 30
  da:	b2 e0       	ldi	r27, 0x02	; 2
  dc:	01 c0       	rjmp	.+2      	; 0xe0 <.do_clear_bss_start>

000000de <.do_clear_bss_loop>:
  de:	1d 92       	st	X+, r1

000000e0 <.do_clear_bss_start>:
  e0:	aa 32       	cpi	r26, 0x2A	; 42
  e2:	b2 07       	cpc	r27, r18
  e4:	e1 f7       	brne	.-8      	; 0xde <.do_clear_bss_loop>
  e6:	0e 94 1c 03 	call	0x638	; 0x638 <main>
  ea:	0c 94 37 04 	jmp	0x86e	; 0x86e <_exit>

000000ee <__bad_interrupt>:
  ee:	0c 94 00 00 	jmp	0	; 0x0 <__vectors>

000000f2 <GPIO_init>:
		_delay_ms(145);
	}
	
	// Lower the poker
	Claw_1();
}
  f2:	52 98       	cbi	0x0a, 2	; 10
  f4:	08 95       	ret

000000f6 <INTERRUPT_init>:
  f6:	e8 9a       	sbi	0x1d, 0	; 29
  f8:	e9 e6       	ldi	r30, 0x69	; 105
  fa:	f0 e0       	ldi	r31, 0x00	; 0
  fc:	80 81       	ld	r24, Z
  fe:	8c 7f       	andi	r24, 0xFC	; 252
 100:	80 83       	st	Z, r24
 102:	78 94       	sei
 104:	08 95       	ret

00000106 <SPI_masterInit>:
 106:	22 9a       	sbi	0x04, 2	; 4
 108:	23 9a       	sbi	0x04, 3	; 4
 10a:	25 9a       	sbi	0x04, 5	; 4
 10c:	2a 9a       	sbi	0x05, 2	; 5
 10e:	2b 98       	cbi	0x05, 3	; 5
 110:	2d 98       	cbi	0x05, 5	; 5
 112:	8c b5       	in	r24, 0x2c	; 44
 114:	80 65       	ori	r24, 0x50	; 80
 116:	8c bd       	out	0x2c, r24	; 44
 118:	8c b5       	in	r24, 0x2c	; 44
 11a:	83 60       	ori	r24, 0x03	; 3
 11c:	8c bd       	out	0x2c, r24	; 44
 11e:	08 95       	ret

00000120 <SPI_txrx>:
 120:	8e bd       	out	0x2e, r24	; 46
 122:	0d b4       	in	r0, 0x2d	; 45
 124:	07 fe       	sbrs	r0, 7
 126:	fd cf       	rjmp	.-6      	; 0x122 <SPI_txrx+0x2>
 128:	87 ec       	ldi	r24, 0xC7	; 199
 12a:	90 e0       	ldi	r25, 0x00	; 0
 12c:	01 97       	sbiw	r24, 0x01	; 1
 12e:	f1 f7       	brne	.-4      	; 0x12c <SPI_txrx+0xc>
 130:	00 c0       	rjmp	.+0      	; 0x132 <SPI_txrx+0x12>
 132:	00 00       	nop
 134:	8e b5       	in	r24, 0x2e	; 46
 136:	08 95       	ret

00000138 <mcp2515_write_register>:
 138:	cf 93       	push	r28
 13a:	df 93       	push	r29
 13c:	d8 2f       	mov	r29, r24
 13e:	c6 2f       	mov	r28, r22
 140:	2a 98       	cbi	0x05, 2	; 5
 142:	82 e0       	ldi	r24, 0x02	; 2
 144:	0e 94 90 00 	call	0x120	; 0x120 <SPI_txrx>
 148:	8d 2f       	mov	r24, r29
 14a:	0e 94 90 00 	call	0x120	; 0x120 <SPI_txrx>
 14e:	8c 2f       	mov	r24, r28
 150:	0e 94 90 00 	call	0x120	; 0x120 <SPI_txrx>
 154:	2a 9a       	sbi	0x05, 2	; 5
 156:	df 91       	pop	r29
 158:	cf 91       	pop	r28
 15a:	08 95       	ret

0000015c <mcp2515_read_register>:
 15c:	cf 93       	push	r28
 15e:	c8 2f       	mov	r28, r24
 160:	2a 98       	cbi	0x05, 2	; 5
 162:	83 e0       	ldi	r24, 0x03	; 3
 164:	0e 94 90 00 	call	0x120	; 0x120 <SPI_txrx>
 168:	8c 2f       	mov	r24, r28
 16a:	0e 94 90 00 	call	0x120	; 0x120 <SPI_txrx>
 16e:	8f ef       	ldi	r24, 0xFF	; 255
 170:	0e 94 90 00 	call	0x120	; 0x120 <SPI_txrx>
 174:	2a 9a       	sbi	0x05, 2	; 5
 176:	cf 91       	pop	r28
 178:	08 95       	ret

0000017a <mcp2515_bit_modify>:
 17a:	1f 93       	push	r17
 17c:	cf 93       	push	r28
 17e:	df 93       	push	r29
 180:	18 2f       	mov	r17, r24
 182:	d6 2f       	mov	r29, r22
 184:	c4 2f       	mov	r28, r20
 186:	2a 98       	cbi	0x05, 2	; 5
 188:	85 e0       	ldi	r24, 0x05	; 5
 18a:	0e 94 90 00 	call	0x120	; 0x120 <SPI_txrx>
 18e:	81 2f       	mov	r24, r17
 190:	0e 94 90 00 	call	0x120	; 0x120 <SPI_txrx>
 194:	8d 2f       	mov	r24, r29
 196:	0e 94 90 00 	call	0x120	; 0x120 <SPI_txrx>
 19a:	8c 2f       	mov	r24, r28
 19c:	0e 94 90 00 	call	0x120	; 0x120 <SPI_txrx>
 1a0:	2a 9a       	sbi	0x05, 2	; 5
 1a2:	df 91       	pop	r29
 1a4:	cf 91       	pop	r28
 1a6:	1f 91       	pop	r17
 1a8:	08 95       	ret

000001aa <mcp2515_read_status>:
 1aa:	2a 98       	cbi	0x05, 2	; 5
 1ac:	0e 94 90 00 	call	0x120	; 0x120 <SPI_txrx>
 1b0:	8f ef       	ldi	r24, 0xFF	; 255
 1b2:	0e 94 90 00 	call	0x120	; 0x120 <SPI_txrx>
 1b6:	2a 9a       	sbi	0x05, 2	; 5
 1b8:	08 95       	ret

000001ba <mcp2515_init>:
 1ba:	cf 93       	push	r28
 1bc:	c8 2f       	mov	r28, r24
 1be:	2a 98       	cbi	0x05, 2	; 5
 1c0:	80 ec       	ldi	r24, 0xC0	; 192
 1c2:	0e 94 90 00 	call	0x120	; 0x120 <SPI_txrx>
 1c6:	2a 9a       	sbi	0x05, 2	; 5
 1c8:	8a e6       	ldi	r24, 0x6A	; 106
 1ca:	8a 95       	dec	r24
 1cc:	f1 f7       	brne	.-4      	; 0x1ca <mcp2515_init+0x10>
 1ce:	00 c0       	rjmp	.+0      	; 0x1d0 <mcp2515_init+0x16>
 1d0:	2a 98       	cbi	0x05, 2	; 5
 1d2:	82 e0       	ldi	r24, 0x02	; 2
 1d4:	0e 94 90 00 	call	0x120	; 0x120 <SPI_txrx>
 1d8:	88 e2       	ldi	r24, 0x28	; 40
 1da:	0e 94 90 00 	call	0x120	; 0x120 <SPI_txrx>
 1de:	82 e0       	ldi	r24, 0x02	; 2
 1e0:	0e 94 90 00 	call	0x120	; 0x120 <SPI_txrx>
 1e4:	80 e9       	ldi	r24, 0x90	; 144
 1e6:	0e 94 90 00 	call	0x120	; 0x120 <SPI_txrx>
 1ea:	8c 2f       	mov	r24, r28
 1ec:	0e 94 90 00 	call	0x120	; 0x120 <SPI_txrx>
 1f0:	83 e0       	ldi	r24, 0x03	; 3
 1f2:	0e 94 90 00 	call	0x120	; 0x120 <SPI_txrx>
 1f6:	2a 9a       	sbi	0x05, 2	; 5
 1f8:	8a e2       	ldi	r24, 0x2A	; 42
 1fa:	0e 94 ae 00 	call	0x15c	; 0x15c <mcp2515_read_register>
 1fe:	8c 13       	cpse	r24, r28
 200:	7e c0       	rjmp	.+252    	; 0x2fe <mcp2515_init+0x144>
 202:	60 e0       	ldi	r22, 0x00	; 0
 204:	8c e0       	ldi	r24, 0x0C	; 12
 206:	0e 94 9c 00 	call	0x138	; 0x138 <mcp2515_write_register>
 20a:	60 e0       	ldi	r22, 0x00	; 0
 20c:	8d e0       	ldi	r24, 0x0D	; 13
 20e:	0e 94 9c 00 	call	0x138	; 0x138 <mcp2515_write_register>
 212:	2a 98       	cbi	0x05, 2	; 5
 214:	82 e0       	ldi	r24, 0x02	; 2
 216:	0e 94 90 00 	call	0x120	; 0x120 <SPI_txrx>
 21a:	80 e2       	ldi	r24, 0x20	; 32
 21c:	0e 94 90 00 	call	0x120	; 0x120 <SPI_txrx>
 220:	80 e0       	ldi	r24, 0x00	; 0
 222:	0e 94 90 00 	call	0x120	; 0x120 <SPI_txrx>
 226:	80 ee       	ldi	r24, 0xE0	; 224
 228:	0e 94 90 00 	call	0x120	; 0x120 <SPI_txrx>
 22c:	2a 9a       	sbi	0x05, 2	; 5
 22e:	2a 98       	cbi	0x05, 2	; 5
 230:	82 e0       	ldi	r24, 0x02	; 2
 232:	0e 94 90 00 	call	0x120	; 0x120 <SPI_txrx>
 236:	84 e2       	ldi	r24, 0x24	; 36
 238:	0e 94 90 00 	call	0x120	; 0x120 <SPI_txrx>
 23c:	80 e0       	ldi	r24, 0x00	; 0
 23e:	0e 94 90 00 	call	0x120	; 0x120 <SPI_txrx>
 242:	80 ee       	ldi	r24, 0xE0	; 224
 244:	0e 94 90 00 	call	0x120	; 0x120 <SPI_txrx>
 248:	2a 9a       	sbi	0x05, 2	; 5
 24a:	2a 98       	cbi	0x05, 2	; 5
 24c:	82 e0       	ldi	r24, 0x02	; 2
 24e:	0e 94 90 00 	call	0x120	; 0x120 <SPI_txrx>
 252:	80 e0       	ldi	r24, 0x00	; 0
 254:	0e 94 90 00 	call	0x120	; 0x120 <SPI_txrx>
 258:	80 e0       	ldi	r24, 0x00	; 0
 25a:	0e 94 90 00 	call	0x120	; 0x120 <SPI_txrx>
 25e:	80 e4       	ldi	r24, 0x40	; 64
 260:	0e 94 90 00 	call	0x120	; 0x120 <SPI_txrx>
 264:	2a 9a       	sbi	0x05, 2	; 5
 266:	2a 98       	cbi	0x05, 2	; 5
 268:	82 e0       	ldi	r24, 0x02	; 2
 26a:	0e 94 90 00 	call	0x120	; 0x120 <SPI_txrx>
 26e:	84 e0       	ldi	r24, 0x04	; 4
 270:	0e 94 90 00 	call	0x120	; 0x120 <SPI_txrx>
 274:	80 e0       	ldi	r24, 0x00	; 0
 276:	0e 94 90 00 	call	0x120	; 0x120 <SPI_txrx>
 27a:	80 e4       	ldi	r24, 0x40	; 64
 27c:	0e 94 90 00 	call	0x120	; 0x120 <SPI_txrx>
 280:	2a 9a       	sbi	0x05, 2	; 5
 282:	2a 98       	cbi	0x05, 2	; 5
 284:	82 e0       	ldi	r24, 0x02	; 2
 286:	0e 94 90 00 	call	0x120	; 0x120 <SPI_txrx>
 28a:	88 e0       	ldi	r24, 0x08	; 8
 28c:	0e 94 90 00 	call	0x120	; 0x120 <SPI_txrx>
 290:	80 e0       	ldi	r24, 0x00	; 0
 292:	0e 94 90 00 	call	0x120	; 0x120 <SPI_txrx>
 296:	80 e4       	ldi	r24, 0x40	; 64
 298:	0e 94 90 00 	call	0x120	; 0x120 <SPI_txrx>
 29c:	2a 9a       	sbi	0x05, 2	; 5
 29e:	2a 98       	cbi	0x05, 2	; 5
 2a0:	82 e0       	ldi	r24, 0x02	; 2
 2a2:	0e 94 90 00 	call	0x120	; 0x120 <SPI_txrx>
 2a6:	80 e1       	ldi	r24, 0x10	; 16
 2a8:	0e 94 90 00 	call	0x120	; 0x120 <SPI_txrx>
 2ac:	80 e0       	ldi	r24, 0x00	; 0
 2ae:	0e 94 90 00 	call	0x120	; 0x120 <SPI_txrx>
 2b2:	80 e4       	ldi	r24, 0x40	; 64
 2b4:	0e 94 90 00 	call	0x120	; 0x120 <SPI_txrx>
 2b8:	2a 9a       	sbi	0x05, 2	; 5
 2ba:	2a 98       	cbi	0x05, 2	; 5
 2bc:	82 e0       	ldi	r24, 0x02	; 2
 2be:	0e 94 90 00 	call	0x120	; 0x120 <SPI_txrx>
 2c2:	84 e1       	ldi	r24, 0x14	; 20
 2c4:	0e 94 90 00 	call	0x120	; 0x120 <SPI_txrx>
 2c8:	80 e0       	ldi	r24, 0x00	; 0
 2ca:	0e 94 90 00 	call	0x120	; 0x120 <SPI_txrx>
 2ce:	80 e4       	ldi	r24, 0x40	; 64
 2d0:	0e 94 90 00 	call	0x120	; 0x120 <SPI_txrx>
 2d4:	2a 9a       	sbi	0x05, 2	; 5
 2d6:	2a 98       	cbi	0x05, 2	; 5
 2d8:	82 e0       	ldi	r24, 0x02	; 2
 2da:	0e 94 90 00 	call	0x120	; 0x120 <SPI_txrx>
 2de:	88 e1       	ldi	r24, 0x18	; 24
 2e0:	0e 94 90 00 	call	0x120	; 0x120 <SPI_txrx>
 2e4:	80 e0       	ldi	r24, 0x00	; 0
 2e6:	0e 94 90 00 	call	0x120	; 0x120 <SPI_txrx>
 2ea:	80 e4       	ldi	r24, 0x40	; 64
 2ec:	0e 94 90 00 	call	0x120	; 0x120 <SPI_txrx>
 2f0:	2a 9a       	sbi	0x05, 2	; 5
 2f2:	60 e0       	ldi	r22, 0x00	; 0
 2f4:	8f e0       	ldi	r24, 0x0F	; 15
 2f6:	0e 94 9c 00 	call	0x138	; 0x138 <mcp2515_write_register>
 2fa:	81 e0       	ldi	r24, 0x01	; 1
 2fc:	01 c0       	rjmp	.+2      	; 0x300 <mcp2515_init+0x146>
 2fe:	80 e0       	ldi	r24, 0x00	; 0
 300:	cf 91       	pop	r28
 302:	08 95       	ret

00000304 <mcp2515_get_message>:
 304:	cf 92       	push	r12
 306:	df 92       	push	r13
 308:	ef 92       	push	r14
 30a:	ff 92       	push	r15
 30c:	0f 93       	push	r16
 30e:	1f 93       	push	r17
 310:	cf 93       	push	r28
 312:	df 93       	push	r29
 314:	1f 92       	push	r1
 316:	cd b7       	in	r28, 0x3d	; 61
 318:	de b7       	in	r29, 0x3e	; 62
 31a:	6c 01       	movw	r12, r24
 31c:	80 eb       	ldi	r24, 0xB0	; 176
 31e:	0e 94 d5 00 	call	0x1aa	; 0x1aa <mcp2515_read_status>
 322:	89 83       	std	Y+1, r24	; 0x01
 324:	99 81       	ldd	r25, Y+1	; 0x01
 326:	89 2f       	mov	r24, r25
 328:	80 74       	andi	r24, 0x40	; 64
 32a:	96 fd       	sbrc	r25, 6
 32c:	06 c0       	rjmp	.+12     	; 0x33a <mcp2515_get_message+0x36>
 32e:	99 81       	ldd	r25, Y+1	; 0x01
 330:	99 23       	and	r25, r25
 332:	0c f0       	brlt	.+2      	; 0x336 <mcp2515_get_message+0x32>
 334:	5e c0       	rjmp	.+188    	; 0x3f2 <mcp2515_get_message+0xee>
 336:	84 e9       	ldi	r24, 0x94	; 148
 338:	01 c0       	rjmp	.+2      	; 0x33c <mcp2515_get_message+0x38>
 33a:	80 e9       	ldi	r24, 0x90	; 144
 33c:	2a 98       	cbi	0x05, 2	; 5
 33e:	0e 94 90 00 	call	0x120	; 0x120 <SPI_txrx>
 342:	8f ef       	ldi	r24, 0xFF	; 255
 344:	0e 94 90 00 	call	0x120	; 0x120 <SPI_txrx>
 348:	28 e0       	ldi	r18, 0x08	; 8
 34a:	82 9f       	mul	r24, r18
 34c:	c0 01       	movw	r24, r0
 34e:	11 24       	eor	r1, r1
 350:	f6 01       	movw	r30, r12
 352:	91 83       	std	Z+1, r25	; 0x01
 354:	80 83       	st	Z, r24
 356:	8f ef       	ldi	r24, 0xFF	; 255
 358:	0e 94 90 00 	call	0x120	; 0x120 <SPI_txrx>
 35c:	28 2f       	mov	r18, r24
 35e:	22 95       	swap	r18
 360:	26 95       	lsr	r18
 362:	27 70       	andi	r18, 0x07	; 7
 364:	f6 01       	movw	r30, r12
 366:	80 81       	ld	r24, Z
 368:	91 81       	ldd	r25, Z+1	; 0x01
 36a:	82 2b       	or	r24, r18
 36c:	91 83       	std	Z+1, r25	; 0x01
 36e:	80 83       	st	Z, r24
 370:	8f ef       	ldi	r24, 0xFF	; 255
 372:	0e 94 90 00 	call	0x120	; 0x120 <SPI_txrx>
 376:	8f ef       	ldi	r24, 0xFF	; 255
 378:	0e 94 90 00 	call	0x120	; 0x120 <SPI_txrx>
 37c:	8f ef       	ldi	r24, 0xFF	; 255
 37e:	0e 94 90 00 	call	0x120	; 0x120 <SPI_txrx>
 382:	98 2f       	mov	r25, r24
 384:	9f 70       	andi	r25, 0x0F	; 15
 386:	29 2f       	mov	r18, r25
 388:	22 0f       	add	r18, r18
 38a:	f6 01       	movw	r30, r12
 38c:	82 81       	ldd	r24, Z+2	; 0x02
 38e:	81 7e       	andi	r24, 0xE1	; 225
 390:	82 2b       	or	r24, r18
 392:	82 83       	std	Z+2, r24	; 0x02
 394:	29 81       	ldd	r18, Y+1	; 0x01
 396:	23 fb       	bst	r18, 3
 398:	22 27       	eor	r18, r18
 39a:	20 f9       	bld	r18, 0
 39c:	20 fb       	bst	r18, 0
 39e:	80 f9       	bld	r24, 0
 3a0:	82 83       	std	Z+2, r24	; 0x02
 3a2:	99 23       	and	r25, r25
 3a4:	a1 f0       	breq	.+40     	; 0x3ce <mcp2515_get_message+0xca>
 3a6:	86 01       	movw	r16, r12
 3a8:	0d 5f       	subi	r16, 0xFD	; 253
 3aa:	1f 4f       	sbci	r17, 0xFF	; 255
 3ac:	91 50       	subi	r25, 0x01	; 1
 3ae:	e9 2e       	mov	r14, r25
 3b0:	f1 2c       	mov	r15, r1
 3b2:	f4 e0       	ldi	r31, 0x04	; 4
 3b4:	ef 0e       	add	r14, r31
 3b6:	f1 1c       	adc	r15, r1
 3b8:	ec 0c       	add	r14, r12
 3ba:	fd 1c       	adc	r15, r13
 3bc:	8f ef       	ldi	r24, 0xFF	; 255
 3be:	0e 94 90 00 	call	0x120	; 0x120 <SPI_txrx>
 3c2:	f8 01       	movw	r30, r16
 3c4:	81 93       	st	Z+, r24
 3c6:	8f 01       	movw	r16, r30
 3c8:	ee 15       	cp	r30, r14
 3ca:	ff 05       	cpc	r31, r15
 3cc:	b9 f7       	brne	.-18     	; 0x3bc <mcp2515_get_message+0xb8>
 3ce:	2a 9a       	sbi	0x05, 2	; 5
 3d0:	89 81       	ldd	r24, Y+1	; 0x01
 3d2:	86 ff       	sbrs	r24, 6
 3d4:	06 c0       	rjmp	.+12     	; 0x3e2 <mcp2515_get_message+0xde>
 3d6:	40 e0       	ldi	r20, 0x00	; 0
 3d8:	61 e0       	ldi	r22, 0x01	; 1
 3da:	8c e2       	ldi	r24, 0x2C	; 44
 3dc:	0e 94 bd 00 	call	0x17a	; 0x17a <mcp2515_bit_modify>
 3e0:	05 c0       	rjmp	.+10     	; 0x3ec <mcp2515_get_message+0xe8>
 3e2:	40 e0       	ldi	r20, 0x00	; 0
 3e4:	62 e0       	ldi	r22, 0x02	; 2
 3e6:	8c e2       	ldi	r24, 0x2C	; 44
 3e8:	0e 94 bd 00 	call	0x17a	; 0x17a <mcp2515_bit_modify>
 3ec:	89 81       	ldd	r24, Y+1	; 0x01
 3ee:	87 70       	andi	r24, 0x07	; 7
 3f0:	8f 5f       	subi	r24, 0xFF	; 255
 3f2:	0f 90       	pop	r0
 3f4:	df 91       	pop	r29
 3f6:	cf 91       	pop	r28
 3f8:	1f 91       	pop	r17
 3fa:	0f 91       	pop	r16
 3fc:	ff 90       	pop	r15
 3fe:	ef 90       	pop	r14
 400:	df 90       	pop	r13
 402:	cf 90       	pop	r12
 404:	08 95       	ret

00000406 <mcp2515_send_message>:
 406:	bf 92       	push	r11
 408:	cf 92       	push	r12
 40a:	df 92       	push	r13
 40c:	ef 92       	push	r14
 40e:	ff 92       	push	r15
 410:	0f 93       	push	r16
 412:	1f 93       	push	r17
 414:	cf 93       	push	r28
 416:	df 93       	push	r29
 418:	1f 92       	push	r1
 41a:	cd b7       	in	r28, 0x3d	; 61
 41c:	de b7       	in	r29, 0x3e	; 62
 41e:	6c 01       	movw	r12, r24
 420:	80 ea       	ldi	r24, 0xA0	; 160
 422:	0e 94 d5 00 	call	0x1aa	; 0x1aa <mcp2515_read_status>
 426:	89 83       	std	Y+1, r24	; 0x01
 428:	89 81       	ldd	r24, Y+1	; 0x01
 42a:	82 ff       	sbrs	r24, 2
 42c:	0a c0       	rjmp	.+20     	; 0x442 <mcp2515_send_message+0x3c>
 42e:	89 81       	ldd	r24, Y+1	; 0x01
 430:	84 ff       	sbrs	r24, 4
 432:	09 c0       	rjmp	.+18     	; 0x446 <mcp2515_send_message+0x40>
 434:	89 81       	ldd	r24, Y+1	; 0x01
 436:	86 fd       	sbrc	r24, 6
 438:	69 c0       	rjmp	.+210    	; 0x50c <mcp2515_send_message+0x106>
 43a:	68 94       	set
 43c:	bb 24       	eor	r11, r11
 43e:	b2 f8       	bld	r11, 2
 440:	05 c0       	rjmp	.+10     	; 0x44c <mcp2515_send_message+0x46>
 442:	b1 2c       	mov	r11, r1
 444:	03 c0       	rjmp	.+6      	; 0x44c <mcp2515_send_message+0x46>
 446:	68 94       	set
 448:	bb 24       	eor	r11, r11
 44a:	b1 f8       	bld	r11, 1
 44c:	2a 98       	cbi	0x05, 2	; 5
 44e:	8b 2d       	mov	r24, r11
 450:	80 64       	ori	r24, 0x40	; 64
 452:	0e 94 90 00 	call	0x120	; 0x120 <SPI_txrx>
 456:	d6 01       	movw	r26, r12
 458:	8d 91       	ld	r24, X+
 45a:	9c 91       	ld	r25, X
 45c:	96 95       	lsr	r25
 45e:	87 95       	ror	r24
 460:	96 95       	lsr	r25
 462:	87 95       	ror	r24
 464:	96 95       	lsr	r25
 466:	87 95       	ror	r24
 468:	0e 94 90 00 	call	0x120	; 0x120 <SPI_txrx>
 46c:	f6 01       	movw	r30, r12
 46e:	80 81       	ld	r24, Z
 470:	82 95       	swap	r24
 472:	88 0f       	add	r24, r24
 474:	80 7e       	andi	r24, 0xE0	; 224
 476:	0e 94 90 00 	call	0x120	; 0x120 <SPI_txrx>
 47a:	80 e0       	ldi	r24, 0x00	; 0
 47c:	0e 94 90 00 	call	0x120	; 0x120 <SPI_txrx>
 480:	80 e0       	ldi	r24, 0x00	; 0
 482:	0e 94 90 00 	call	0x120	; 0x120 <SPI_txrx>
 486:	d6 01       	movw	r26, r12
 488:	12 96       	adiw	r26, 0x02	; 2
 48a:	8c 91       	ld	r24, X
 48c:	e8 2e       	mov	r14, r24
 48e:	e6 94       	lsr	r14
 490:	be 2d       	mov	r27, r14
 492:	bf 70       	andi	r27, 0x0F	; 15
 494:	eb 2e       	mov	r14, r27
 496:	80 ff       	sbrs	r24, 0
 498:	05 c0       	rjmp	.+10     	; 0x4a4 <mcp2515_send_message+0x9e>
 49a:	8b 2f       	mov	r24, r27
 49c:	80 64       	ori	r24, 0x40	; 64
 49e:	0e 94 90 00 	call	0x120	; 0x120 <SPI_txrx>
 4a2:	17 c0       	rjmp	.+46     	; 0x4d2 <mcp2515_send_message+0xcc>
 4a4:	8b 2f       	mov	r24, r27
 4a6:	0e 94 90 00 	call	0x120	; 0x120 <SPI_txrx>
 4aa:	ee 20       	and	r14, r14
 4ac:	91 f0       	breq	.+36     	; 0x4d2 <mcp2515_send_message+0xcc>
 4ae:	86 01       	movw	r16, r12
 4b0:	0d 5f       	subi	r16, 0xFD	; 253
 4b2:	1f 4f       	sbci	r17, 0xFF	; 255
 4b4:	ea 94       	dec	r14
 4b6:	f1 2c       	mov	r15, r1
 4b8:	e4 e0       	ldi	r30, 0x04	; 4
 4ba:	ee 0e       	add	r14, r30
 4bc:	f1 1c       	adc	r15, r1
 4be:	ec 0c       	add	r14, r12
 4c0:	fd 1c       	adc	r15, r13
 4c2:	d8 01       	movw	r26, r16
 4c4:	8d 91       	ld	r24, X+
 4c6:	8d 01       	movw	r16, r26
 4c8:	0e 94 90 00 	call	0x120	; 0x120 <SPI_txrx>
 4cc:	0e 15       	cp	r16, r14
 4ce:	1f 05       	cpc	r17, r15
 4d0:	c1 f7       	brne	.-16     	; 0x4c2 <mcp2515_send_message+0xbc>
 4d2:	2a 9a       	sbi	0x05, 2	; 5
 4d4:	b5 e0       	ldi	r27, 0x05	; 5
 4d6:	ba 95       	dec	r27
 4d8:	f1 f7       	brne	.-4      	; 0x4d6 <mcp2515_send_message+0xd0>
 4da:	00 00       	nop
 4dc:	2a 98       	cbi	0x05, 2	; 5
 4de:	b1 10       	cpse	r11, r1
 4e0:	02 c0       	rjmp	.+4      	; 0x4e6 <mcp2515_send_message+0xe0>
 4e2:	bb 24       	eor	r11, r11
 4e4:	b3 94       	inc	r11
 4e6:	8b 2d       	mov	r24, r11
 4e8:	80 68       	ori	r24, 0x80	; 128
 4ea:	0e 94 90 00 	call	0x120	; 0x120 <SPI_txrx>
 4ee:	2a 9a       	sbi	0x05, 2	; 5
 4f0:	f6 01       	movw	r30, r12
 4f2:	11 82       	std	Z+1, r1	; 0x01
 4f4:	10 82       	st	Z, r1
 4f6:	82 81       	ldd	r24, Z+2	; 0x02
 4f8:	80 7e       	andi	r24, 0xE0	; 224
 4fa:	82 83       	std	Z+2, r24	; 0x02
 4fc:	33 96       	adiw	r30, 0x03	; 3
 4fe:	88 e0       	ldi	r24, 0x08	; 8
 500:	df 01       	movw	r26, r30
 502:	1d 92       	st	X+, r1
 504:	8a 95       	dec	r24
 506:	e9 f7       	brne	.-6      	; 0x502 <mcp2515_send_message+0xfc>
 508:	8b 2d       	mov	r24, r11
 50a:	01 c0       	rjmp	.+2      	; 0x50e <mcp2515_send_message+0x108>
 50c:	80 e0       	ldi	r24, 0x00	; 0
 50e:	0f 90       	pop	r0
 510:	df 91       	pop	r29
 512:	cf 91       	pop	r28
 514:	1f 91       	pop	r17
 516:	0f 91       	pop	r16
 518:	ff 90       	pop	r15
 51a:	ef 90       	pop	r14
 51c:	df 90       	pop	r13
 51e:	cf 90       	pop	r12
 520:	bf 90       	pop	r11
 522:	08 95       	ret

00000524 <setup>:
 524:	6b 9a       	sbi	0x0d, 3	; 13
 526:	6a 9a       	sbi	0x0d, 2	; 13
 528:	21 9a       	sbi	0x04, 1	; 4
 52a:	20 9a       	sbi	0x04, 0	; 4
 52c:	57 9a       	sbi	0x0a, 7	; 10
 52e:	56 9a       	sbi	0x0a, 6	; 10
 530:	39 9a       	sbi	0x07, 1	; 7
 532:	38 9a       	sbi	0x07, 0	; 7
 534:	54 9a       	sbi	0x0a, 4	; 10
 536:	53 9a       	sbi	0x0a, 3	; 10
 538:	55 9a       	sbi	0x0a, 5	; 10
 53a:	73 98       	cbi	0x0e, 3	; 14
 53c:	72 98       	cbi	0x0e, 2	; 14
 53e:	29 98       	cbi	0x05, 1	; 5
 540:	28 98       	cbi	0x05, 0	; 5
 542:	5f 98       	cbi	0x0b, 7	; 11
 544:	5e 98       	cbi	0x0b, 6	; 11
 546:	41 98       	cbi	0x08, 1	; 8
 548:	40 98       	cbi	0x08, 0	; 8
 54a:	43 98       	cbi	0x08, 3	; 8
 54c:	42 98       	cbi	0x08, 2	; 8
 54e:	5c 98       	cbi	0x0b, 4	; 11
 550:	5b 98       	cbi	0x0b, 3	; 11
 552:	5d 98       	cbi	0x0b, 5	; 11
 554:	0e 94 79 00 	call	0xf2	; 0xf2 <GPIO_init>
 558:	0e 94 7b 00 	call	0xf6	; 0xf6 <INTERRUPT_init>
 55c:	0e 94 83 00 	call	0x106	; 0x106 <SPI_masterInit>
 560:	81 e0       	ldi	r24, 0x01	; 1
 562:	0e 94 dd 00 	call	0x1ba	; 0x1ba <mcp2515_init>
 566:	08 95       	ret

00000568 <Laser_1>:
 568:	9b b1       	in	r25, 0x0b	; 11
 56a:	80 e1       	ldi	r24, 0x10	; 16
 56c:	89 27       	eor	r24, r25
 56e:	8b b9       	out	0x0b, r24	; 11
 570:	08 95       	ret

00000572 <Laser_2>:
 572:	9b b1       	in	r25, 0x0b	; 11
 574:	88 e0       	ldi	r24, 0x08	; 8
 576:	89 27       	eor	r24, r25
 578:	8b b9       	out	0x0b, r24	; 11
 57a:	08 95       	ret

0000057c <Torpedo_1>:
 57c:	98 b1       	in	r25, 0x08	; 8
 57e:	88 e0       	ldi	r24, 0x08	; 8
 580:	89 27       	eor	r24, r25
 582:	88 b9       	out	0x08, r24	; 8
 584:	2f ef       	ldi	r18, 0xFF	; 255
 586:	80 e7       	ldi	r24, 0x70	; 112
 588:	92 e0       	ldi	r25, 0x02	; 2
 58a:	21 50       	subi	r18, 0x01	; 1
 58c:	80 40       	sbci	r24, 0x00	; 0
 58e:	90 40       	sbci	r25, 0x00	; 0
 590:	e1 f7       	brne	.-8      	; 0x58a <Torpedo_1+0xe>
 592:	00 c0       	rjmp	.+0      	; 0x594 <Torpedo_1+0x18>
 594:	00 00       	nop
 596:	43 98       	cbi	0x08, 3	; 8
 598:	08 95       	ret

0000059a <Torpedo_2>:
 59a:	98 b1       	in	r25, 0x08	; 8
 59c:	84 e0       	ldi	r24, 0x04	; 4
 59e:	89 27       	eor	r24, r25
 5a0:	88 b9       	out	0x08, r24	; 8
 5a2:	2f ef       	ldi	r18, 0xFF	; 255
 5a4:	80 e7       	ldi	r24, 0x70	; 112
 5a6:	92 e0       	ldi	r25, 0x02	; 2
 5a8:	21 50       	subi	r18, 0x01	; 1
 5aa:	80 40       	sbci	r24, 0x00	; 0
 5ac:	90 40       	sbci	r25, 0x00	; 0
 5ae:	e1 f7       	brne	.-8      	; 0x5a8 <Torpedo_2+0xe>
 5b0:	00 c0       	rjmp	.+0      	; 0x5b2 <Torpedo_2+0x18>
 5b2:	00 00       	nop
 5b4:	42 98       	cbi	0x08, 2	; 8
 5b6:	08 95       	ret

000005b8 <Dropper_1>:
 5b8:	98 b1       	in	r25, 0x08	; 8
 5ba:	82 e0       	ldi	r24, 0x02	; 2
 5bc:	89 27       	eor	r24, r25
 5be:	88 b9       	out	0x08, r24	; 8
 5c0:	2f ef       	ldi	r18, 0xFF	; 255
 5c2:	80 e7       	ldi	r24, 0x70	; 112
 5c4:	92 e0       	ldi	r25, 0x02	; 2
 5c6:	21 50       	subi	r18, 0x01	; 1
 5c8:	80 40       	sbci	r24, 0x00	; 0
 5ca:	90 40       	sbci	r25, 0x00	; 0
 5cc:	e1 f7       	brne	.-8      	; 0x5c6 <Dropper_1+0xe>
 5ce:	00 c0       	rjmp	.+0      	; 0x5d0 <Dropper_1+0x18>
 5d0:	00 00       	nop
 5d2:	41 98       	cbi	0x08, 1	; 8
 5d4:	08 95       	ret

000005d6 <Dropper_2>:
 5d6:	98 b1       	in	r25, 0x08	; 8
 5d8:	81 e0       	ldi	r24, 0x01	; 1
 5da:	89 27       	eor	r24, r25
 5dc:	88 b9       	out	0x08, r24	; 8
 5de:	2f ef       	ldi	r18, 0xFF	; 255
 5e0:	80 e7       	ldi	r24, 0x70	; 112
 5e2:	92 e0       	ldi	r25, 0x02	; 2
 5e4:	21 50       	subi	r18, 0x01	; 1
 5e6:	80 40       	sbci	r24, 0x00	; 0
 5e8:	90 40       	sbci	r25, 0x00	; 0
 5ea:	e1 f7       	brne	.-8      	; 0x5e4 <Dropper_2+0xe>
 5ec:	00 c0       	rjmp	.+0      	; 0x5ee <Dropper_2+0x18>
 5ee:	00 00       	nop
 5f0:	40 98       	cbi	0x08, 0	; 8
 5f2:	08 95       	ret

000005f4 <Claw_1>:
 5f4:	9e b1       	in	r25, 0x0e	; 14
 5f6:	88 e0       	ldi	r24, 0x08	; 8
 5f8:	89 27       	eor	r24, r25
 5fa:	8e b9       	out	0x0e, r24	; 14
 5fc:	08 95       	ret

000005fe <Claw_2>:
 5fe:	9e b1       	in	r25, 0x0e	; 14
 600:	84 e0       	ldi	r24, 0x04	; 4
 602:	89 27       	eor	r24, r25
 604:	8e b9       	out	0x0e, r24	; 14
 606:	08 95       	ret

00000608 <Claw_3>:
 608:	95 b1       	in	r25, 0x05	; 5
 60a:	82 e0       	ldi	r24, 0x02	; 2
 60c:	89 27       	eor	r24, r25
 60e:	85 b9       	out	0x05, r24	; 5
 610:	08 95       	ret

00000612 <Claw_4>:
 612:	95 b1       	in	r25, 0x05	; 5
 614:	81 e0       	ldi	r24, 0x01	; 1
 616:	89 27       	eor	r24, r25
 618:	85 b9       	out	0x05, r24	; 5
 61a:	08 95       	ret

0000061c <Claw_5>:
 61c:	8b b1       	in	r24, 0x0b	; 11
 61e:	80 58       	subi	r24, 0x80	; 128
 620:	8b b9       	out	0x0b, r24	; 11
 622:	08 95       	ret

00000624 <Claw_6>:
 624:	9b b1       	in	r25, 0x0b	; 11
 626:	80 e4       	ldi	r24, 0x40	; 64
 628:	89 27       	eor	r24, r25
 62a:	8b b9       	out	0x0b, r24	; 11
 62c:	08 95       	ret

0000062e <Spare>:
 62e:	9b b1       	in	r25, 0x0b	; 11
 630:	80 e2       	ldi	r24, 0x20	; 32
 632:	89 27       	eor	r24, r25
 634:	8b b9       	out	0x0b, r24	; 11
 636:	08 95       	ret

00000638 <main>:
 638:	0e 94 92 02 	call	0x524	; 0x524 <setup>
 63c:	cf e1       	ldi	r28, 0x1F	; 31
 63e:	d2 e0       	ldi	r29, 0x02	; 2
 640:	08 e0       	ldi	r16, 0x08	; 8
 642:	12 e0       	ldi	r17, 0x02	; 2
 644:	0f 2e       	mov	r0, r31
 646:	fd ef       	ldi	r31, 0xFD	; 253
 648:	ef 2e       	mov	r14, r31
 64a:	f1 e0       	ldi	r31, 0x01	; 1
 64c:	ff 2e       	mov	r15, r31
 64e:	f0 2d       	mov	r31, r0
 650:	0f 2e       	mov	r0, r31
 652:	f2 ef       	ldi	r31, 0xF2	; 242
 654:	cf 2e       	mov	r12, r31
 656:	f1 e0       	ldi	r31, 0x01	; 1
 658:	df 2e       	mov	r13, r31
 65a:	f0 2d       	mov	r31, r0
 65c:	0f 2e       	mov	r0, r31
 65e:	f7 ee       	ldi	r31, 0xE7	; 231
 660:	af 2e       	mov	r10, r31
 662:	f1 e0       	ldi	r31, 0x01	; 1
 664:	bf 2e       	mov	r11, r31
 666:	f0 2d       	mov	r31, r0
 668:	0f 2e       	mov	r0, r31
 66a:	fc ed       	ldi	r31, 0xDC	; 220
 66c:	8f 2e       	mov	r8, r31
 66e:	f1 e0       	ldi	r31, 0x01	; 1
 670:	9f 2e       	mov	r9, r31
 672:	f0 2d       	mov	r31, r0
 674:	0f 2e       	mov	r0, r31
 676:	f1 ed       	ldi	r31, 0xD1	; 209
 678:	6f 2e       	mov	r6, r31
 67a:	f1 e0       	ldi	r31, 0x01	; 1
 67c:	7f 2e       	mov	r7, r31
 67e:	f0 2d       	mov	r31, r0
 680:	0f 2e       	mov	r0, r31
 682:	f6 ec       	ldi	r31, 0xC6	; 198
 684:	4f 2e       	mov	r4, r31
 686:	f1 e0       	ldi	r31, 0x01	; 1
 688:	5f 2e       	mov	r5, r31
 68a:	f0 2d       	mov	r31, r0
 68c:	80 91 1e 02 	lds	r24, 0x021E	; 0x80021e <__data_end>
 690:	88 23       	and	r24, r24
 692:	e1 f3       	breq	.-8      	; 0x68c <main+0x54>
 694:	3f b6       	in	r3, 0x3f	; 63
 696:	f8 94       	cli
 698:	88 81       	ld	r24, Y
 69a:	99 81       	ldd	r25, Y+1	; 0x01
 69c:	a3 e1       	ldi	r26, 0x13	; 19
 69e:	b2 e0       	ldi	r27, 0x02	; 2
 6a0:	2d 91       	ld	r18, X+
 6a2:	3c 91       	ld	r19, X
 6a4:	82 17       	cp	r24, r18
 6a6:	93 07       	cpc	r25, r19
 6a8:	39 f4       	brne	.+14     	; 0x6b8 <main+0x80>
 6aa:	84 e8       	ldi	r24, 0x84	; 132
 6ac:	91 e0       	ldi	r25, 0x01	; 1
 6ae:	0e 94 03 02 	call	0x406	; 0x406 <mcp2515_send_message>
 6b2:	0e 94 b4 02 	call	0x568	; 0x568 <Laser_1>
 6b6:	a0 c0       	rjmp	.+320    	; 0x7f8 <main+0x1c0>
 6b8:	f8 01       	movw	r30, r16
 6ba:	20 81       	ld	r18, Z
 6bc:	31 81       	ldd	r19, Z+1	; 0x01
 6be:	82 17       	cp	r24, r18
 6c0:	93 07       	cpc	r25, r19
 6c2:	39 f4       	brne	.+14     	; 0x6d2 <main+0x9a>
 6c4:	89 e7       	ldi	r24, 0x79	; 121
 6c6:	91 e0       	ldi	r25, 0x01	; 1
 6c8:	0e 94 03 02 	call	0x406	; 0x406 <mcp2515_send_message>
 6cc:	0e 94 b9 02 	call	0x572	; 0x572 <Laser_2>
 6d0:	93 c0       	rjmp	.+294    	; 0x7f8 <main+0x1c0>
 6d2:	d7 01       	movw	r26, r14
 6d4:	2d 91       	ld	r18, X+
 6d6:	3c 91       	ld	r19, X
 6d8:	82 17       	cp	r24, r18
 6da:	93 07       	cpc	r25, r19
 6dc:	39 f4       	brne	.+14     	; 0x6ec <main+0xb4>
 6de:	8e e6       	ldi	r24, 0x6E	; 110
 6e0:	91 e0       	ldi	r25, 0x01	; 1
 6e2:	0e 94 03 02 	call	0x406	; 0x406 <mcp2515_send_message>
 6e6:	0e 94 be 02 	call	0x57c	; 0x57c <Torpedo_1>
 6ea:	86 c0       	rjmp	.+268    	; 0x7f8 <main+0x1c0>
 6ec:	f6 01       	movw	r30, r12
 6ee:	20 81       	ld	r18, Z
 6f0:	31 81       	ldd	r19, Z+1	; 0x01
 6f2:	82 17       	cp	r24, r18
 6f4:	93 07       	cpc	r25, r19
 6f6:	39 f4       	brne	.+14     	; 0x706 <main+0xce>
 6f8:	83 e6       	ldi	r24, 0x63	; 99
 6fa:	91 e0       	ldi	r25, 0x01	; 1
 6fc:	0e 94 03 02 	call	0x406	; 0x406 <mcp2515_send_message>
 700:	0e 94 cd 02 	call	0x59a	; 0x59a <Torpedo_2>
 704:	79 c0       	rjmp	.+242    	; 0x7f8 <main+0x1c0>
 706:	d5 01       	movw	r26, r10
 708:	2d 91       	ld	r18, X+
 70a:	3c 91       	ld	r19, X
 70c:	82 17       	cp	r24, r18
 70e:	93 07       	cpc	r25, r19
 710:	39 f4       	brne	.+14     	; 0x720 <main+0xe8>
 712:	88 e5       	ldi	r24, 0x58	; 88
 714:	91 e0       	ldi	r25, 0x01	; 1
 716:	0e 94 03 02 	call	0x406	; 0x406 <mcp2515_send_message>
 71a:	0e 94 dc 02 	call	0x5b8	; 0x5b8 <Dropper_1>
 71e:	6c c0       	rjmp	.+216    	; 0x7f8 <main+0x1c0>
 720:	f4 01       	movw	r30, r8
 722:	20 81       	ld	r18, Z
 724:	31 81       	ldd	r19, Z+1	; 0x01
 726:	82 17       	cp	r24, r18
 728:	93 07       	cpc	r25, r19
 72a:	39 f4       	brne	.+14     	; 0x73a <main+0x102>
 72c:	8d e4       	ldi	r24, 0x4D	; 77
 72e:	91 e0       	ldi	r25, 0x01	; 1
 730:	0e 94 03 02 	call	0x406	; 0x406 <mcp2515_send_message>
 734:	0e 94 eb 02 	call	0x5d6	; 0x5d6 <Dropper_2>
 738:	5f c0       	rjmp	.+190    	; 0x7f8 <main+0x1c0>
 73a:	d3 01       	movw	r26, r6
 73c:	2d 91       	ld	r18, X+
 73e:	3c 91       	ld	r19, X
 740:	82 17       	cp	r24, r18
 742:	93 07       	cpc	r25, r19
 744:	39 f4       	brne	.+14     	; 0x754 <main+0x11c>
 746:	82 e4       	ldi	r24, 0x42	; 66
 748:	91 e0       	ldi	r25, 0x01	; 1
 74a:	0e 94 03 02 	call	0x406	; 0x406 <mcp2515_send_message>
 74e:	0e 94 fa 02 	call	0x5f4	; 0x5f4 <Claw_1>
 752:	52 c0       	rjmp	.+164    	; 0x7f8 <main+0x1c0>
 754:	f2 01       	movw	r30, r4
 756:	20 81       	ld	r18, Z
 758:	31 81       	ldd	r19, Z+1	; 0x01
 75a:	82 17       	cp	r24, r18
 75c:	93 07       	cpc	r25, r19
 75e:	39 f4       	brne	.+14     	; 0x76e <main+0x136>
 760:	87 e3       	ldi	r24, 0x37	; 55
 762:	91 e0       	ldi	r25, 0x01	; 1
 764:	0e 94 03 02 	call	0x406	; 0x406 <mcp2515_send_message>
 768:	0e 94 ff 02 	call	0x5fe	; 0x5fe <Claw_2>
 76c:	45 c0       	rjmp	.+138    	; 0x7f8 <main+0x1c0>
 76e:	ab eb       	ldi	r26, 0xBB	; 187
 770:	b1 e0       	ldi	r27, 0x01	; 1
 772:	2d 91       	ld	r18, X+
 774:	3c 91       	ld	r19, X
 776:	82 17       	cp	r24, r18
 778:	93 07       	cpc	r25, r19
 77a:	39 f4       	brne	.+14     	; 0x78a <main+0x152>
 77c:	8c e2       	ldi	r24, 0x2C	; 44
 77e:	91 e0       	ldi	r25, 0x01	; 1
 780:	0e 94 03 02 	call	0x406	; 0x406 <mcp2515_send_message>
 784:	0e 94 04 03 	call	0x608	; 0x608 <Claw_3>
 788:	37 c0       	rjmp	.+110    	; 0x7f8 <main+0x1c0>
 78a:	e0 eb       	ldi	r30, 0xB0	; 176
 78c:	f1 e0       	ldi	r31, 0x01	; 1
 78e:	20 81       	ld	r18, Z
 790:	31 81       	ldd	r19, Z+1	; 0x01
 792:	82 17       	cp	r24, r18
 794:	93 07       	cpc	r25, r19
 796:	39 f4       	brne	.+14     	; 0x7a6 <main+0x16e>
 798:	81 e2       	ldi	r24, 0x21	; 33
 79a:	91 e0       	ldi	r25, 0x01	; 1
 79c:	0e 94 03 02 	call	0x406	; 0x406 <mcp2515_send_message>
 7a0:	0e 94 09 03 	call	0x612	; 0x612 <Claw_4>
 7a4:	29 c0       	rjmp	.+82     	; 0x7f8 <main+0x1c0>
 7a6:	a5 ea       	ldi	r26, 0xA5	; 165
 7a8:	b1 e0       	ldi	r27, 0x01	; 1
 7aa:	2d 91       	ld	r18, X+
 7ac:	3c 91       	ld	r19, X
 7ae:	82 17       	cp	r24, r18
 7b0:	93 07       	cpc	r25, r19
 7b2:	39 f4       	brne	.+14     	; 0x7c2 <main+0x18a>
 7b4:	86 e1       	ldi	r24, 0x16	; 22
 7b6:	91 e0       	ldi	r25, 0x01	; 1
 7b8:	0e 94 03 02 	call	0x406	; 0x406 <mcp2515_send_message>
 7bc:	0e 94 0e 03 	call	0x61c	; 0x61c <Claw_5>
 7c0:	1b c0       	rjmp	.+54     	; 0x7f8 <main+0x1c0>
 7c2:	ea e9       	ldi	r30, 0x9A	; 154
 7c4:	f1 e0       	ldi	r31, 0x01	; 1
 7c6:	20 81       	ld	r18, Z
 7c8:	31 81       	ldd	r19, Z+1	; 0x01
 7ca:	82 17       	cp	r24, r18
 7cc:	93 07       	cpc	r25, r19
 7ce:	39 f4       	brne	.+14     	; 0x7de <main+0x1a6>
 7d0:	8b e0       	ldi	r24, 0x0B	; 11
 7d2:	91 e0       	ldi	r25, 0x01	; 1
 7d4:	0e 94 03 02 	call	0x406	; 0x406 <mcp2515_send_message>
 7d8:	0e 94 12 03 	call	0x624	; 0x624 <Claw_6>
 7dc:	0d c0       	rjmp	.+26     	; 0x7f8 <main+0x1c0>
 7de:	20 91 8f 01 	lds	r18, 0x018F	; 0x80018f <Weapon13_Command>
 7e2:	30 91 90 01 	lds	r19, 0x0190	; 0x800190 <Weapon13_Command+0x1>
 7e6:	82 17       	cp	r24, r18
 7e8:	93 07       	cpc	r25, r19
 7ea:	31 f4       	brne	.+12     	; 0x7f8 <main+0x1c0>
 7ec:	80 e0       	ldi	r24, 0x00	; 0
 7ee:	91 e0       	ldi	r25, 0x01	; 1
 7f0:	0e 94 03 02 	call	0x406	; 0x406 <mcp2515_send_message>
 7f4:	0e 94 17 03 	call	0x62e	; 0x62e <Spare>
 7f8:	19 82       	std	Y+1, r1	; 0x01
 7fa:	18 82       	st	Y, r1
 7fc:	e1 e2       	ldi	r30, 0x21	; 33
 7fe:	f2 e0       	ldi	r31, 0x02	; 2
 800:	80 81       	ld	r24, Z
 802:	80 7e       	andi	r24, 0xE0	; 224
 804:	80 83       	st	Z, r24
 806:	88 e0       	ldi	r24, 0x08	; 8
 808:	e2 e2       	ldi	r30, 0x22	; 34
 80a:	f2 e0       	ldi	r31, 0x02	; 2
 80c:	df 01       	movw	r26, r30
 80e:	1d 92       	st	X+, r1
 810:	8a 95       	dec	r24
 812:	e9 f7       	brne	.-6      	; 0x80e <main+0x1d6>
 814:	10 92 1e 02 	sts	0x021E, r1	; 0x80021e <__data_end>
 818:	3f be       	out	0x3f, r3	; 63
 81a:	38 cf       	rjmp	.-400    	; 0x68c <main+0x54>

0000081c <__vector_1>:


/******************************************************************************
	CAN RECEIVE interrupt on pin PD2|
******************************************************************************/
ISR(INT0_vect){
 81c:	1f 92       	push	r1
 81e:	0f 92       	push	r0
 820:	0f b6       	in	r0, 0x3f	; 63
 822:	0f 92       	push	r0
 824:	11 24       	eor	r1, r1
 826:	2f 93       	push	r18
 828:	3f 93       	push	r19
 82a:	4f 93       	push	r20
 82c:	5f 93       	push	r21
 82e:	6f 93       	push	r22
 830:	7f 93       	push	r23
 832:	8f 93       	push	r24
 834:	9f 93       	push	r25
 836:	af 93       	push	r26
 838:	bf 93       	push	r27
 83a:	ef 93       	push	r30
 83c:	ff 93       	push	r31
	mcp2515_get_message(&CANRX_buffer);	// get canbus message
 83e:	8f e1       	ldi	r24, 0x1F	; 31
 840:	92 e0       	ldi	r25, 0x02	; 2
 842:	0e 94 82 01 	call	0x304	; 0x304 <mcp2515_get_message>
	rx_flag = 1;  //set flag
 846:	81 e0       	ldi	r24, 0x01	; 1
 848:	80 93 1e 02 	sts	0x021E, r24	; 0x80021e <__data_end>
}
 84c:	ff 91       	pop	r31
 84e:	ef 91       	pop	r30
 850:	bf 91       	pop	r27
 852:	af 91       	pop	r26
 854:	9f 91       	pop	r25
 856:	8f 91       	pop	r24
 858:	7f 91       	pop	r23
 85a:	6f 91       	pop	r22
 85c:	5f 91       	pop	r21
 85e:	4f 91       	pop	r20
 860:	3f 91       	pop	r19
 862:	2f 91       	pop	r18
 864:	0f 90       	pop	r0
 866:	0f be       	out	0x3f, r0	; 63
 868:	0f 90       	pop	r0
 86a:	1f 90       	pop	r1
 86c:	18 95       	reti

0000086e <_exit>:
 86e:	f8 94       	cli

00000870 <__stop_program>:
 870:	ff cf       	rjmp	.-2      	; 0x870 <__stop_program>
